Certificate:
    Data:
        Version: 3 (0x2)
        Serial Number: 9716033579989129921 (0x86d649103104dac1)
    Signature Algorithm: sha256WithRSAEncryption
        Issuer: C=IN, ST=Uttar Pradesh, O=RL-Sapient-Infra, OU=Ralph Lauren - Everest Program, CN=10.207.86.142
        Validity
            Not Before: Mar 19 05:44:31 2015 GMT
            Not After : Mar 16 05:44:31 2025 GMT
        Subject: C=IN, ST=Uttar Pradesh, L=Noida, O=RL-Sapient-Infra, OU=Ralph Lauren - Everest Program, CN=10.207.86.140
        Subject Public Key Info:
            Public Key Algorithm: rsaEncryption
                Public-Key: (2048 bit)
                Modulus:
                    00:c6:fa:bf:ca:87:d7:95:c7:fe:e7:47:7c:47:89:
                    79:74:62:bd:17:d9:5b:ec:44:aa:a4:a8:fe:12:3d:
                    96:be:9d:f7:c1:a9:58:28:07:7c:40:f4:c5:03:53:
                    fa:74:72:01:ef:5e:e8:c4:7e:a5:8b:89:fd:f6:0c:
                    72:73:34:c3:13:b2:9b:09:b8:94:49:11:91:47:5c:
                    8d:f7:0f:42:4a:be:06:25:ba:34:f2:12:8a:0e:72:
                    44:d3:04:3d:38:c3:b3:3f:be:71:0e:69:22:b6:8e:
                    74:48:8e:2c:4e:ff:97:ff:7d:3c:41:96:55:19:b1:
                    a3:f0:99:54:45:60:9e:16:5f:62:0d:39:96:97:60:
                    70:af:35:a9:dc:43:1e:ff:c9:bc:5c:94:23:91:df:
                    88:6f:a8:b4:fd:83:9e:a3:c0:5a:a6:2f:89:d4:ed:
                    55:49:24:a2:1d:b6:17:c7:2e:76:1d:67:2e:af:3d:
                    b3:de:bf:8c:59:28:7e:c5:78:5d:45:16:d1:de:ca:
                    cf:2e:63:74:74:c9:16:4d:38:bc:08:ea:be:16:36:
                    52:20:c5:79:72:27:1f:3b:d8:34:93:79:ee:1c:d1:
                    e7:e9:41:a0:80:da:32:f2:e7:74:7b:55:97:81:3b:
                    17:eb:f5:b1:30:d3:ee:1b:df:f9:18:c1:d2:e2:ae:
                    1b:35
                Exponent: 65537 (0x10001)
        X509v3 extensions:
            X509v3 Subject Alternative Name: 
                DNS:ralphlauren-us.ci.sapient.com, DNS:rl-us.admin.ci.sapient.com, IP Address:10.207.86.140, DNS:delvmplrl13.sapient.com
    Signature Algorithm: sha256WithRSAEncryption
         20:b8:3d:9a:95:d0:1c:22:7d:78:6f:94:fc:ab:e5:f6:3b:30:
         93:fc:2c:8a:7d:86:d8:8c:b9:ec:d3:3e:a1:59:bd:5d:8b:ff:
         50:98:f8:ef:29:49:7a:45:4e:ee:29:ff:1b:78:c4:3b:bb:25:
         3a:1b:3b:33:36:d6:ef:fe:b9:63:af:86:da:48:3d:a2:5c:27:
         6a:37:9a:01:23:f0:9f:35:99:42:af:27:58:9d:ac:1d:a9:da:
         f5:f4:b2:3f:f3:e7:35:73:c3:cc:b3:27:d1:45:63:50:b3:3e:
         99:3d:bb:45:a8:c4:80:1c:ae:1e:dd:d0:27:fa:cb:91:0e:90:
         42:f4:87:54:66:f8:11:69:2a:6c:83:1d:f9:22:2a:ca:f6:8c:
         d0:2f:2f:20:6f:b1:77:af:b2:e7:f8:70:fb:6f:4c:5f:53:3c:
         e3:bb:80:98:94:74:28:5d:7d:02:71:55:a1:7e:40:dd:c9:4f:
         55:3e:b2:c1:da:2f:b4:ce:c1:04:85:62:47:e5:4d:5f:e0:bf:
         6c:58:86:82:e8:2b:5e:9d:49:ab:bf:cf:d7:cb:26:01:64:be:
         01:74:eb:13:17:a5:17:71:bf:c8:8b:d3:d4:18:38:f2:64:bf:
         1c:b3:89:46:6e:0c:bb:12:a0:67:1f:c4:d2:e3:dc:c3:e6:37:
         79:30:0b:6e
-----BEGIN CERTIFICATE-----
MIID/jCCAuagAwIBAgIJAIbWSRAxBNrBMA0GCSqGSIb3DQEBCwUAMIGBMQswCQYD
VQQGEwJJTjEWMBQGA1UECAwNVXR0YXIgUHJhZGVzaDEZMBcGA1UECgwQUkwtU2Fw
aWVudC1JbmZyYTEnMCUGA1UECwweUmFscGggTGF1cmVuIC0gRXZlcmVzdCBQcm9n
cmFtMRYwFAYDVQQDDA0xMC4yMDcuODYuMTQyMB4XDTE1MDMxOTA1NDQzMVoXDTI1
MDMxNjA1NDQzMVowgZExCzAJBgNVBAYTAklOMRYwFAYDVQQIDA1VdHRhciBQcmFk
ZXNoMQ4wDAYDVQQHDAVOb2lkYTEZMBcGA1UECgwQUkwtU2FwaWVudC1JbmZyYTEn
MCUGA1UECwweUmFscGggTGF1cmVuIC0gRXZlcmVzdCBQcm9ncmFtMRYwFAYDVQQD
DA0xMC4yMDcuODYuMTQwMIIBIjANBgkqhkiG9w0BAQEFAAOCAQ8AMIIBCgKCAQEA
xvq/yofXlcf+50d8R4l5dGK9F9lb7ESqpKj+Ej2Wvp33walYKAd8QPTFA1P6dHIB
717oxH6li4n99gxyczTDE7KbCbiUSRGRR1yN9w9CSr4GJbo08hKKDnJE0wQ9OMOz
P75xDmkito50SI4sTv+X/308QZZVGbGj8JlURWCeFl9iDTmWl2BwrzWp3EMe/8m8
XJQjkd+Ib6i0/YOeo8Bapi+J1O1VSSSiHbYXxy52HWcurz2z3r+MWSh+xXhdRRbR
3srPLmN0dMkWTTi8COq+FjZSIMV5cicfO9g0k3nuHNHn6UGggNoy8ud0e1WXgTsX
6/WxMNPuG9/5GMHS4q4bNQIDAQABo2cwZTBjBgNVHREEXDBagh1yYWxwaGxhdXJl
bi11cy5jaS5zYXBpZW50LmNvbYIacmwtdXMuYWRtaW4uY2kuc2FwaWVudC5jb22H
BArPVoyCF2RlbHZtcGxybDEzLnNhcGllbnQuY29tMA0GCSqGSIb3DQEBCwUAA4IB
AQAguD2aldAcIn14b5T8q+X2OzCT/CyKfYbYjLns0z6hWb1di/9QmPjvKUl6RU7u
Kf8beMQ7uyU6GzszNtbv/rljr4baSD2iXCdqN5oBI/CfNZlCrydYnawdqdr19LI/
8+c1c8PMsyfRRWNQsz6ZPbtFqMSAHK4e3dAn+suRDpBC9IdUZvgRaSpsgx35IirK
9ozQLy8gb7F3r7Ln+HD7b0xfUzzju4CYlHQoXX0CcVWhfkDdyU9VPrLB2i+0zsEE
hWJH5U1f4L9sWIaC6CtenUmrv8/XyyYBZL4BdOsTF6UXcb/Ii9PUGDjyZL8cs4lG
bgy7EqBnH8TS49zD5jd5MAtu
-----END CERTIFICATE-----
